; Function Attrs: nounwind uwtable
define ptr @l_Lean_Omega_IntList_get___boxed(ptr noundef %0, ptr noundef %1) local_unnamed_addr #0 {
  %3 = tail call ptr @l___private_Init_GetElem_0__List_get_x3fInternal___rarg(ptr noundef %0, ptr noundef %1) #3
  %4 = ptrtoint ptr %3 to i64
  %5 = and i64 %4, 1
  %.not.i9.i = icmp eq i64 %5, 0
  br i1 %.not.i9.i, label %9, label %6

6:                                                ; preds = %2
  %7 = lshr i64 %4, 1
  %8 = trunc i64 %7 to i32
  br label %lean_obj_tag.exit.i

9:                                                ; preds = %2
  %10 = getelementptr i8, ptr %3, i64 4
  %.val.i.i = load i32, ptr %10, align 4
  %11 = lshr i32 %.val.i.i, 24
  br label %lean_obj_tag.exit.i

lean_obj_tag.exit.i:                              ; preds = %9, %6
  %.0.i.i = phi i32 [ %8, %6 ], [ %11, %9 ]
  %12 = icmp eq i32 %.0.i.i, 0
  br i1 %12, label %13, label %15

13:                                               ; preds = %lean_obj_tag.exit.i
  %14 = load ptr, ptr @l_Lean_Omega_IntList_get___closed__1, align 8, !tbaa !4
  br label %l_Lean_Omega_IntList_get.exit

15:                                               ; preds = %lean_obj_tag.exit.i
  %16 = getelementptr inbounds nuw i8, ptr %3, i64 8
  %17 = load ptr, ptr %16, align 8, !tbaa !4
  %18 = ptrtoint ptr %17 to i64
  %19 = and i64 %18, 1
  %.not.i4 = icmp eq i64 %19, 0
  br i1 %.not.i4, label %20, label %lean_inc.exit.i

20:                                               ; preds = %15
  %.val.i10.i = load i32, ptr %17, align 4, !tbaa !8
  %21 = icmp sgt i32 %.val.i10.i, 0
  br i1 %21, label %22, label %24, !prof !11

22:                                               ; preds = %20
  %23 = add nuw i32 %.val.i10.i, 1
  store i32 %23, ptr %17, align 4, !tbaa !8
  br label %lean_inc.exit.i

24:                                               ; preds = %20
  %.not.i11.i = icmp eq i32 %.val.i10.i, 0
  br i1 %.not.i11.i, label %lean_inc.exit.i, label %25

25:                                               ; preds = %24
  tail call void @lean_inc_ref_cold(ptr noundef nonnull %17) #3
  br label %lean_inc.exit.i

lean_inc.exit.i:                                  ; preds = %25, %24, %22, %15
  br i1 %.not.i9.i, label %26, label %l_Lean_Omega_IntList_get.exit

26:                                               ; preds = %lean_inc.exit.i
  %27 = load i32, ptr %3, align 4, !tbaa !8
  %28 = icmp sgt i32 %27, 1
  br i1 %28, label %29, label %31, !prof !11

29:                                               ; preds = %26
  %30 = add nsw i32 %27, -1
  store i32 %30, ptr %3, align 4, !tbaa !8
  br label %l_Lean_Omega_IntList_get.exit

31:                                               ; preds = %26
  %.not.i.i = icmp eq i32 %27, 0
  br i1 %.not.i.i, label %l_Lean_Omega_IntList_get.exit, label %32

32:                                               ; preds = %31
  tail call void @lean_dec_ref_cold(ptr noundef nonnull %3) #3
  br label %l_Lean_Omega_IntList_get.exit

l_Lean_Omega_IntList_get.exit:                    ; preds = %13, %lean_inc.exit.i, %29, %31, %32
  %.0.i = phi ptr [ %14, %13 ], [ %17, %32 ], [ %17, %31 ], [ %17, %29 ], [ %17, %lean_inc.exit.i ]
  %33 = ptrtoint ptr %0 to i64
  %34 = and i64 %33, 1
  %.not = icmp eq i64 %34, 0
  br i1 %.not, label %35, label %lean_dec.exit

35:                                               ; preds = %l_Lean_Omega_IntList_get.exit
  %36 = load i32, ptr %0, align 4, !tbaa !8
  %37 = icmp sgt i32 %36, 1
  br i1 %37, label %38, label %40, !prof !11

38:                                               ; preds = %35
  %39 = add nsw i32 %36, -1
  store i32 %39, ptr %0, align 4, !tbaa !8
  br label %lean_dec.exit

40:                                               ; preds = %35
  %.not.i = icmp eq i32 %36, 0
  br i1 %.not.i, label %lean_dec.exit, label %41

41:                                               ; preds = %40
  tail call void @lean_dec_ref_cold(ptr noundef nonnull %0) #3
  br label %lean_dec.exit

lean_dec.exit:                                    ; preds = %41, %40, %38, %l_Lean_Omega_IntList_get.exit
  ret ptr %.0.i
}